target datalayout = "e-m:e-p270:32:32-p271:32:32-p272:64:64-i64:64-i128:128-f80:128-n8:16:32:64-S128"
target triple = "x86_64-pc-linux-gnu"

%struct.Aig_Obj_t_ = type { %union.anon, ptr, ptr, i64, i32, i32, %union.anon.0 }
%union.anon = type { ptr }
%union.anon.0 = type { ptr }
%struct.Vec_Ptr_t_ = type { i32, i32, ptr }

; Function Attrs: inlinehint nounwind uwtable
define internal ptr @Dch_ObjSim(ptr noundef %0, ptr noundef %1) #2 {
  %3 = alloca ptr, align 8
  %4 = alloca ptr, align 8
  store ptr %0, ptr %3, align 8, !tbaa !9
  store ptr %1, ptr %4, align 8, !tbaa !7
  %5 = load ptr, ptr %3, align 8, !tbaa !9
  %6 = load ptr, ptr %4, align 8, !tbaa !7
  %7 = getelementptr inbounds nuw %struct.Aig_Obj_t_, ptr %6, i32 0, i32 5
  %8 = load i32, ptr %7, align 4, !tbaa !20
  %9 = call ptr @Vec_PtrEntry(ptr noundef %5, i32 noundef %8)
  ret ptr %9
}

; Function Attrs: inlinehint nounwind uwtable
define internal ptr @Vec_PtrEntry(ptr noundef %0, i32 noundef %1) #2 {
  %3 = alloca ptr, align 8
  %4 = alloca i32, align 4
  store ptr %0, ptr %3, align 8, !tbaa !9
  store i32 %1, ptr %4, align 4, !tbaa !11
  %5 = load ptr, ptr %3, align 8, !tbaa !9
  %6 = getelementptr inbounds nuw %struct.Vec_Ptr_t_, ptr %5, i32 0, i32 2
  %7 = load ptr, ptr %6, align 8, !tbaa !18
  %8 = load i32, ptr %4, align 4, !tbaa !11
  %9 = sext i32 %8 to i64
  %10 = getelementptr inbounds ptr, ptr %7, i64 %9
  %11 = load ptr, ptr %10, align 8, !tbaa !3
  ret ptr %11
}

; Function Attrs: nounwind uwtable
define i32 @Dch_NodesAreEqual(ptr noundef %0, ptr noundef %1, ptr noundef %2) #0 {
  %4 = alloca i32, align 4
  %5 = alloca ptr, align 8
  %6 = alloca ptr, align 8
  %7 = alloca ptr, align 8
  %8 = alloca ptr, align 8
  %9 = alloca ptr, align 8
  %10 = alloca ptr, align 8
  %11 = alloca i32, align 4
  %12 = alloca i32, align 4
  %13 = alloca i32, align 4
  store ptr %0, ptr %5, align 8, !tbaa !3
  store ptr %1, ptr %6, align 8, !tbaa !7
  store ptr %2, ptr %7, align 8, !tbaa !7
  call void @llvm.lifetime.start.p0(i64 8, ptr %8) #7
  %14 = load ptr, ptr %5, align 8, !tbaa !3
  store ptr %14, ptr %8, align 8, !tbaa !9
  call void @llvm.lifetime.start.p0(i64 8, ptr %9) #7
  call void @llvm.lifetime.start.p0(i64 8, ptr %10) #7
  call void @llvm.lifetime.start.p0(i64 4, ptr %11) #7
  call void @llvm.lifetime.start.p0(i64 4, ptr %12) #7
  %15 = load ptr, ptr %8, align 8, !tbaa !9
  %16 = call ptr @Vec_PtrEntry(ptr noundef %15, i32 noundef 1)
  %17 = load ptr, ptr %8, align 8, !tbaa !9
  %18 = call ptr @Vec_PtrEntry(ptr noundef %17, i32 noundef 0)
  %19 = ptrtoint ptr %16 to i64
  %20 = ptrtoint ptr %18 to i64
  %21 = sub i64 %19, %20
  %22 = sdiv exact i64 %21, 4
  %23 = trunc i64 %22 to i32
  store i32 %23, ptr %12, align 4, !tbaa !11
  %24 = load ptr, ptr %8, align 8, !tbaa !9
  %25 = load ptr, ptr %6, align 8, !tbaa !7
  %26 = call ptr @Dch_ObjSim(ptr noundef %24, ptr noundef %25)
  store ptr %26, ptr %9, align 8, !tbaa !13
  %27 = load ptr, ptr %8, align 8, !tbaa !9
  %28 = load ptr, ptr %7, align 8, !tbaa !7
  %29 = call ptr @Dch_ObjSim(ptr noundef %27, ptr noundef %28)
  store ptr %29, ptr %10, align 8, !tbaa !13
  %30 = load ptr, ptr %6, align 8, !tbaa !7
  %31 = getelementptr inbounds nuw %struct.Aig_Obj_t_, ptr %30, i32 0, i32 3
  %32 = load i64, ptr %31, align 8
  %33 = lshr i64 %32, 3
  %34 = and i64 %33, 1
  %35 = trunc i64 %34 to i32
  %36 = load ptr, ptr %7, align 8, !tbaa !7
  %37 = getelementptr inbounds nuw %struct.Aig_Obj_t_, ptr %36, i32 0, i32 3
  %38 = load i64, ptr %37, align 8
  %39 = lshr i64 %38, 3
  %40 = and i64 %39, 1
  %41 = trunc i64 %40 to i32
  %42 = icmp ne i32 %35, %41
  br i1 %42, label %43, label %67

43:                                               ; preds = %3
  store i32 0, ptr %11, align 4, !tbaa !11
  br label %44

44:                                               ; preds = %63, %43
  %45 = load i32, ptr %11, align 4, !tbaa !11
  %46 = load i32, ptr %12, align 4, !tbaa !11
  %47 = icmp slt i32 %45, %46
  br i1 %47, label %48, label %66

48:                                               ; preds = %44
  %49 = load ptr, ptr %9, align 8, !tbaa !13
  %50 = load i32, ptr %11, align 4, !tbaa !11
  %51 = sext i32 %50 to i64
  %52 = getelementptr inbounds i32, ptr %49, i64 %51
  %53 = load i32, ptr %52, align 4, !tbaa !11
  %54 = load ptr, ptr %10, align 8, !tbaa !13
  %55 = load i32, ptr %11, align 4, !tbaa !11
  %56 = sext i32 %55 to i64
  %57 = getelementptr inbounds i32, ptr %54, i64 %56
  %58 = load i32, ptr %57, align 4, !tbaa !11
  %59 = xor i32 %58, -1
  %60 = icmp ne i32 %53, %59
  br i1 %60, label %61, label %62

61:                                               ; preds = %48
  store i32 0, ptr %4, align 4
  store i32 1, ptr %13, align 4
  br label %91

62:                                               ; preds = %48
  br label %63

63:                                               ; preds = %62
  %64 = load i32, ptr %11, align 4, !tbaa !11
  %65 = add nsw i32 %64, 1
  store i32 %65, ptr %11, align 4, !tbaa !11
  br label %44, !llvm.loop !24

66:                                               ; preds = %44
  br label %90

67:                                               ; preds = %3
  store i32 0, ptr %11, align 4, !tbaa !11
  br label %68

68:                                               ; preds = %86, %67
  %69 = load i32, ptr %11, align 4, !tbaa !11
  %70 = load i32, ptr %12, align 4, !tbaa !11
  %71 = icmp slt i32 %69, %70
  br i1 %71, label %72, label %89

72:                                               ; preds = %68
  %73 = load ptr, ptr %9, align 8, !tbaa !13
  %74 = load i32, ptr %11, align 4, !tbaa !11
  %75 = sext i32 %74 to i64
  %76 = getelementptr inbounds i32, ptr %73, i64 %75
  %77 = load i32, ptr %76, align 4, !tbaa !11
  %78 = load ptr, ptr %10, align 8, !tbaa !13
  %79 = load i32, ptr %11, align 4, !tbaa !11
  %80 = sext i32 %79 to i64
  %81 = getelementptr inbounds i32, ptr %78, i64 %80
  %82 = load i32, ptr %81, align 4, !tbaa !11
  %83 = icmp ne i32 %77, %82
  br i1 %83, label %84, label %85

84:                                               ; preds = %72
  store i32 0, ptr %4, align 4
  store i32 1, ptr %13, align 4
  br label %91

85:                                               ; preds = %72
  br label %86

86:                                               ; preds = %85
  %87 = load i32, ptr %11, align 4, !tbaa !11
  %88 = add nsw i32 %87, 1
  store i32 %88, ptr %11, align 4, !tbaa !11
  br label %68, !llvm.loop !25

89:                                               ; preds = %68
  br label %90

90:                                               ; preds = %89, %66
  store i32 1, ptr %4, align 4
  store i32 1, ptr %13, align 4
  br label %91

91:                                               ; preds = %90, %84, %61
  call void @llvm.lifetime.end.p0(i64 4, ptr %12) #7
  call void @llvm.lifetime.end.p0(i64 4, ptr %11) #7
  call void @llvm.lifetime.end.p0(i64 8, ptr %10) #7
  call void @llvm.lifetime.end.p0(i64 8, ptr %9) #7
  call void @llvm.lifetime.end.p0(i64 8, ptr %8) #7
  %92 = load i32, ptr %4, align 4
  ret i32 %92
}