; Function Attrs: nofree norecurse nosync nounwind memory(read, inaccessiblemem: none) uwtable
define range(i32 0, 2) i32 @Dch_NodesAreEqual(ptr noundef readonly captures(none) %0, ptr noundef readonly captures(none) %1, ptr noundef readonly captures(none) %2) #1 {
  %4 = getelementptr i8, ptr %0, i64 8
  %.val26 = load ptr, ptr %4, align 8, !tbaa !3
  %5 = getelementptr inbounds nuw i8, ptr %.val26, i64 8
  %6 = load ptr, ptr %5, align 8, !tbaa !9
  %7 = load ptr, ptr %.val26, align 8, !tbaa !9
  %8 = ptrtoint ptr %6 to i64
  %9 = ptrtoint ptr %7 to i64
  %10 = sub i64 %8, %9
  %11 = lshr i64 %10, 2
  %12 = trunc i64 %11 to i32
  %13 = getelementptr i8, ptr %1, i64 36
  %.val30 = load i32, ptr %13, align 4, !tbaa !10
  %14 = sext i32 %.val30 to i64
  %15 = getelementptr inbounds ptr, ptr %.val26, i64 %14
  %16 = load ptr, ptr %15, align 8, !tbaa !9
  %17 = getelementptr i8, ptr %2, i64 36
  %.val28 = load i32, ptr %17, align 4, !tbaa !10
  %18 = sext i32 %.val28 to i64
  %19 = getelementptr inbounds ptr, ptr %.val26, i64 %18
  %20 = load ptr, ptr %19, align 8, !tbaa !9
  %21 = getelementptr inbounds nuw i8, ptr %1, i64 24
  %22 = load i64, ptr %21, align 8
  %23 = getelementptr inbounds nuw i8, ptr %2, i64 24
  %24 = load i64, ptr %23, align 8
  %25 = xor i64 %24, %22
  %26 = and i64 %25, 8
  %.not = icmp eq i64 %26, 0
  %27 = icmp sgt i32 %12, 0
  br i1 %.not, label %.preheader, label %.preheader31

.preheader31:                                     ; preds = %3
  br i1 %27, label %.lr.ph.preheader, label %.loopexit

.lr.ph.preheader:                                 ; preds = %.preheader31
  %wide.trip.count = and i64 %11, 2147483647
  br label %.lr.ph

.preheader:                                       ; preds = %3
  br i1 %27, label %.lr.ph38.preheader, label %.loopexit

.lr.ph38.preheader:                               ; preds = %.preheader
  %wide.trip.count48 = and i64 %11, 2147483647
  br label %.lr.ph38

28:                                               ; preds = %.lr.ph
  %indvars.iv.next = add nuw nsw i64 %indvars.iv, 1
  %exitcond.not = icmp eq i64 %indvars.iv.next, %wide.trip.count
  br i1 %exitcond.not, label %.loopexit, label %.lr.ph, !llvm.loop !19

.lr.ph:                                           ; preds = %.lr.ph.preheader, %28
  %indvars.iv = phi i64 [ 0, %.lr.ph.preheader ], [ %indvars.iv.next, %28 ]
  %29 = getelementptr inbounds nuw i32, ptr %16, i64 %indvars.iv
  %30 = load i32, ptr %29, align 4, !tbaa !13
  %31 = getelementptr inbounds nuw i32, ptr %20, i64 %indvars.iv
  %32 = load i32, ptr %31, align 4, !tbaa !13
  %33 = xor i32 %32, %30
  %.not25 = icmp eq i32 %33, -1
  br i1 %.not25, label %28, label %.loopexit

34:                                               ; preds = %.lr.ph38
  %indvars.iv.next46 = add nuw nsw i64 %indvars.iv45, 1
  %exitcond49.not = icmp eq i64 %indvars.iv.next46, %wide.trip.count48
  br i1 %exitcond49.not, label %.loopexit, label %.lr.ph38, !llvm.loop !20

.lr.ph38:                                         ; preds = %.lr.ph38.preheader, %34
  %indvars.iv45 = phi i64 [ 0, %.lr.ph38.preheader ], [ %indvars.iv.next46, %34 ]
  %35 = getelementptr inbounds nuw i32, ptr %16, i64 %indvars.iv45
  %36 = load i32, ptr %35, align 4, !tbaa !13
  %37 = getelementptr inbounds nuw i32, ptr %20, i64 %indvars.iv45
  %38 = load i32, ptr %37, align 4, !tbaa !13
  %.not24 = icmp eq i32 %36, %38
  br i1 %.not24, label %34, label %.loopexit

.loopexit:                                        ; preds = %.lr.ph, %28, %.lr.ph38, %34, %.preheader31, %.preheader
  %.0 = phi i32 [ 1, %.preheader ], [ 1, %.preheader31 ], [ 0, %.lr.ph38 ], [ 1, %34 ], [ 0, %.lr.ph ], [ 1, %28 ]
  ret i32 %.0
}